; Function Attrs: mustprogress nounwind uwtable
define hidden void @_ZN5zxing6qrcode12QRCodeReaderD2Ev(ptr noundef nonnull align 8 dereferenceable(148) initializes((0, 8)) %0) unnamed_addr #7 align 2 personality ptr @__gxx_personality_v0 {
  store ptr getelementptr inbounds nuw inrange(-16, 80) (i8, ptr @_ZTVN5zxing6qrcode12QRCodeReaderE, i64 16), ptr %0, align 8, !tbaa !8
  %2 = getelementptr inbounds nuw i8, ptr %0, i64 80
  %3 = load ptr, ptr %2, align 8, !tbaa !103
  %4 = getelementptr inbounds nuw i8, ptr %0, i64 88
  %5 = load ptr, ptr %4, align 8, !tbaa !104
  %.not4.i.i.i.i.i = icmp eq ptr %3, %5
  br i1 %.not4.i.i.i.i.i, label %_ZSt8_DestroyIPN5zxing3RefINS0_11ResultPointEEES3_EvT_S5_RSaIT0_E.exit.i.i, label %.lr.ph.i.i.i.i.i

.lr.ph.i.i.i.i.i:                                 ; preds = %1, %_ZSt8_DestroyIN5zxing3RefINS0_11ResultPointEEEEvPT_.exit.i.i.i.i.i
  %.05.i.i.i.i.i = phi ptr [ %16, %_ZSt8_DestroyIN5zxing3RefINS0_11ResultPointEEEEvPT_.exit.i.i.i.i.i ], [ %3, %1 ]
  %6 = load ptr, ptr %.05.i.i.i.i.i, align 8, !tbaa !105
  %.not.i.i.i.i.i.i.i = icmp eq ptr %6, null
  br i1 %.not.i.i.i.i.i.i.i, label %_ZSt8_DestroyIN5zxing3RefINS0_11ResultPointEEEEvPT_.exit.i.i.i.i.i, label %7

7:                                                ; preds = %.lr.ph.i.i.i.i.i
  %8 = getelementptr inbounds nuw i8, ptr %6, i64 8
  %9 = load i32, ptr %8, align 8, !tbaa !3
  %10 = add i32 %9, -1
  store i32 %10, ptr %8, align 8, !tbaa !3
  %11 = icmp eq i32 %10, 0
  br i1 %11, label %12, label %_ZSt8_DestroyIN5zxing3RefINS0_11ResultPointEEEEvPT_.exit.i.i.i.i.i

12:                                               ; preds = %7
  store i32 -559026175, ptr %8, align 8, !tbaa !3
  %13 = load ptr, ptr %6, align 8, !tbaa !8
  %14 = getelementptr inbounds nuw i8, ptr %13, i64 8
  %15 = load ptr, ptr %14, align 8
  tail call void %15(ptr noundef nonnull align 8 dereferenceable(12) %6) #20
  br label %_ZSt8_DestroyIN5zxing3RefINS0_11ResultPointEEEEvPT_.exit.i.i.i.i.i

_ZSt8_DestroyIN5zxing3RefINS0_11ResultPointEEEEvPT_.exit.i.i.i.i.i: ; preds = %12, %7, %.lr.ph.i.i.i.i.i
  %16 = getelementptr inbounds nuw i8, ptr %.05.i.i.i.i.i, i64 8
  %.not.i.i.i.i.i = icmp eq ptr %16, %5
  br i1 %.not.i.i.i.i.i, label %_ZSt8_DestroyIPN5zxing3RefINS0_11ResultPointEEES3_EvT_S5_RSaIT0_E.exitthread-pre-split.i.i, label %.lr.ph.i.i.i.i.i, !llvm.loop !108

_ZSt8_DestroyIPN5zxing3RefINS0_11ResultPointEEES3_EvT_S5_RSaIT0_E.exitthread-pre-split.i.i: ; preds = %_ZSt8_DestroyIN5zxing3RefINS0_11ResultPointEEEEvPT_.exit.i.i.i.i.i
  %.pr.i.i = load ptr, ptr %2, align 8, !tbaa !103
  br label %_ZSt8_DestroyIPN5zxing3RefINS0_11ResultPointEEES3_EvT_S5_RSaIT0_E.exit.i.i

_ZSt8_DestroyIPN5zxing3RefINS0_11ResultPointEEES3_EvT_S5_RSaIT0_E.exit.i.i: ; preds = %_ZSt8_DestroyIPN5zxing3RefINS0_11ResultPointEEES3_EvT_S5_RSaIT0_E.exitthread-pre-split.i.i, %1
  %17 = phi ptr [ %.pr.i.i, %_ZSt8_DestroyIPN5zxing3RefINS0_11ResultPointEEES3_EvT_S5_RSaIT0_E.exitthread-pre-split.i.i ], [ %3, %1 ]
  %.not.i.i.i.i = icmp eq ptr %17, null
  br i1 %.not.i.i.i.i, label %_ZN5zxing6qrcode23QBAR_QRCODE_DETECT_INFOD2Ev.exit, label %18

18:                                               ; preds = %_ZSt8_DestroyIPN5zxing3RefINS0_11ResultPointEEES3_EvT_S5_RSaIT0_E.exit.i.i
  tail call void @_ZdlPv(ptr noundef nonnull %17) #21
  br label %_ZN5zxing6qrcode23QBAR_QRCODE_DETECT_INFOD2Ev.exit

_ZN5zxing6qrcode23QBAR_QRCODE_DETECT_INFOD2Ev.exit: ; preds = %_ZSt8_DestroyIPN5zxing3RefINS0_11ResultPointEEES3_EvT_S5_RSaIT0_E.exit.i.i, %18
  %19 = getelementptr inbounds nuw i8, ptr %0, i64 24
  tail call void @_ZN5zxing18ReedSolomonDecoderD1Ev(ptr noundef nonnull align 8 dereferenceable(8) %19) #20
  tail call void @_ZN5zxing6ReaderD2Ev(ptr noundef nonnull align 8 dereferenceable(12) %0) #20
  ret void
}